target datalayout = "e-m:e-p270:32:32-p271:32:32-p272:64:64-i64:64-i128:128-f80:128-n8:16:32:64-S128"
target triple = "x86_64-pc-linux-gnu"

%struct.__loadu_ps = type { <4 x float> }
%struct.__storeu_ps = type { <4 x float> }
%struct.stbir__contributors = type { i32, i32 }

; Function Attrs: alwaysinline nounwind uwtable
define available_externally void @_mm_storeu_ps(ptr noundef %0, <4 x float> noundef %1) #2 {
  %3 = alloca ptr, align 8
  %4 = alloca <4 x float>, align 16
  store ptr %0, ptr %3, align 8, !tbaa !21
  store <4 x float> %1, ptr %4, align 16, !tbaa !12
  %5 = load <4 x float>, ptr %4, align 16, !tbaa !12
  %6 = load ptr, ptr %3, align 8, !tbaa !21
  %7 = getelementptr inbounds nuw %struct.__storeu_ps, ptr %6, i32 0, i32 0
  store <4 x float> %5, ptr %7, align 1, !tbaa !12
  ret void
}

; Function Attrs: alwaysinline nounwind uwtable
define available_externally <4 x float> @_mm_add_ps(<4 x float> noundef %0, <4 x float> noundef %1) #2 {
  %3 = alloca <4 x float>, align 16
  %4 = alloca <4 x float>, align 16
  store <4 x float> %0, ptr %3, align 16, !tbaa !12
  store <4 x float> %1, ptr %4, align 16, !tbaa !12
  %5 = load <4 x float>, ptr %3, align 16, !tbaa !12
  %6 = load <4 x float>, ptr %4, align 16, !tbaa !12
  %7 = fadd <4 x float> %5, %6
  ret <4 x float> %7
}

; Function Attrs: alwaysinline nounwind uwtable
define available_externally <4 x float> @_mm_mul_ps(<4 x float> noundef %0, <4 x float> noundef %1) #2 {
  %3 = alloca <4 x float>, align 16
  %4 = alloca <4 x float>, align 16
  store <4 x float> %0, ptr %3, align 16, !tbaa !12
  store <4 x float> %1, ptr %4, align 16, !tbaa !12
  %5 = load <4 x float>, ptr %3, align 16, !tbaa !12
  %6 = load <4 x float>, ptr %4, align 16, !tbaa !12
  %7 = fmul <4 x float> %5, %6
  ret <4 x float> %7
}

; Function Attrs: alwaysinline nounwind uwtable
define available_externally <4 x float> @_mm_castsi128_ps(<2 x i64> noundef %0) #2 {
  %2 = alloca <2 x i64>, align 16
  store <2 x i64> %0, ptr %2, align 16, !tbaa !12
  %3 = load <2 x i64>, ptr %2, align 16, !tbaa !12
  %4 = bitcast <2 x i64> %3 to <4 x float>
  ret <4 x float> %4
}

; Function Attrs: alwaysinline nounwind uwtable
define available_externally <2 x i64> @_mm_castps_si128(<4 x float> noundef %0) #2 {
  %2 = alloca <4 x float>, align 16
  store <4 x float> %0, ptr %2, align 16, !tbaa !12
  %3 = load <4 x float>, ptr %2, align 16, !tbaa !12
  %4 = bitcast <4 x float> %3 to <2 x i64>
  ret <2 x i64> %4
}

; Function Attrs: alwaysinline nounwind uwtable
define available_externally <4 x float> @_mm_loadu_ps(ptr noundef %0) #2 {
  %2 = alloca ptr, align 8
  store ptr %0, ptr %2, align 8, !tbaa !21
  %3 = load ptr, ptr %2, align 8, !tbaa !21
  %4 = getelementptr inbounds nuw %struct.__loadu_ps, ptr %3, i32 0, i32 0
  %5 = load <4 x float>, ptr %4, align 1, !tbaa !12
  ret <4 x float> %5
}

; Function Attrs: nounwind uwtable
define void @stbir__horizontal_gather_4_channels_with_8_coeffs(ptr noundef %0, i32 noundef %1, ptr noundef %2, ptr noundef %3, ptr noundef %4, i32 noundef %5) #0 {
  %7 = alloca ptr, align 8
  %8 = alloca i32, align 4
  %9 = alloca ptr, align 8
  %10 = alloca ptr, align 8
  %11 = alloca ptr, align 8
  %12 = alloca i32, align 4
  %13 = alloca ptr, align 8
  %14 = alloca ptr, align 8
  %15 = alloca ptr, align 8
  %16 = alloca ptr, align 8
  %17 = alloca <4 x float>, align 16
  %18 = alloca <4 x float>, align 16
  %19 = alloca <4 x float>, align 16
  %20 = alloca <4 x float>, align 16
  store ptr %0, ptr %7, align 8, !tbaa !21
  store i32 %1, ptr %8, align 4, !tbaa !26
  store ptr %2, ptr %9, align 8, !tbaa !21
  store ptr %3, ptr %10, align 8, !tbaa !3
  store ptr %4, ptr %11, align 8, !tbaa !21
  store i32 %5, ptr %12, align 4, !tbaa !26
  call void @llvm.lifetime.start.p0(i64 8, ptr %13) #12
  %21 = load ptr, ptr %7, align 8, !tbaa !21
  %22 = load i32, ptr %8, align 4, !tbaa !26
  %23 = mul i32 %22, 4
  %24 = zext i32 %23 to i64
  %25 = getelementptr inbounds nuw float, ptr %21, i64 %24
  store ptr %25, ptr %13, align 8, !tbaa !21
  call void @llvm.lifetime.start.p0(i64 8, ptr %14) #12
  %26 = load ptr, ptr %7, align 8, !tbaa !21
  store ptr %26, ptr %14, align 8, !tbaa !21
  br label %27

27:                                               ; preds = %158, %6
  call void @llvm.lifetime.start.p0(i64 8, ptr %15) #12
  %28 = load ptr, ptr %9, align 8, !tbaa !21
  %29 = load ptr, ptr %10, align 8, !tbaa !3
  %30 = getelementptr inbounds nuw %struct.stbir__contributors, ptr %29, i32 0, i32 0
  %31 = load i32, ptr %30, align 4, !tbaa !41
  %32 = mul nsw i32 %31, 4
  %33 = sext i32 %32 to i64
  %34 = getelementptr inbounds float, ptr %28, i64 %33
  store ptr %34, ptr %15, align 8, !tbaa !21
  call void @llvm.lifetime.start.p0(i64 8, ptr %16) #12
  %35 = load ptr, ptr %11, align 8, !tbaa !21
  store ptr %35, ptr %16, align 8, !tbaa !21
  call void @llvm.lifetime.start.p0(i64 16, ptr %17) #12
  call void @llvm.lifetime.start.p0(i64 16, ptr %18) #12
  call void @llvm.lifetime.start.p0(i64 16, ptr %19) #12
  call void @llvm.lifetime.start.p0(i64 16, ptr %20) #12
  %36 = load ptr, ptr %15, align 8, !tbaa !21
  call void asm sideeffect "", "r,~{dirflag},~{fpsr},~{flags}"(ptr %36) #12, !srcloc !703
  %37 = load ptr, ptr %16, align 8, !tbaa !21
  %38 = call <4 x float> @_mm_loadu_ps(ptr noundef %37)
  store <4 x float> %38, ptr %20, align 16, !tbaa !12
  %39 = load <4 x float>, ptr %20, align 16, !tbaa !12
  %40 = call <2 x i64> @_mm_castps_si128(<4 x float> noundef %39)
  %41 = bitcast <2 x i64> %40 to <4 x i32>
  %42 = shufflevector <4 x i32> %41, <4 x i32> poison, <4 x i32> zeroinitializer
  %43 = bitcast <4 x i32> %42 to <2 x i64>
  %44 = call <4 x float> @_mm_castsi128_ps(<2 x i64> noundef %43)
  store <4 x float> %44, ptr %19, align 16, !tbaa !12
  %45 = load <4 x float>, ptr %19, align 16, !tbaa !12
  %46 = load ptr, ptr %15, align 8, !tbaa !21
  %47 = call <4 x float> @_mm_loadu_ps(ptr noundef %46)
  %48 = call <4 x float> @_mm_mul_ps(<4 x float> noundef %45, <4 x float> noundef %47)
  store <4 x float> %48, ptr %17, align 16, !tbaa !12
  %49 = load <4 x float>, ptr %20, align 16, !tbaa !12
  %50 = call <2 x i64> @_mm_castps_si128(<4 x float> noundef %49)
  %51 = bitcast <2 x i64> %50 to <4 x i32>
  %52 = shufflevector <4 x i32> %51, <4 x i32> poison, <4 x i32> <i32 1, i32 1, i32 1, i32 1>
  %53 = bitcast <4 x i32> %52 to <2 x i64>
  %54 = call <4 x float> @_mm_castsi128_ps(<2 x i64> noundef %53)
  store <4 x float> %54, ptr %19, align 16, !tbaa !12
  %55 = load <4 x float>, ptr %19, align 16, !tbaa !12
  %56 = load ptr, ptr %15, align 8, !tbaa !21
  %57 = getelementptr inbounds float, ptr %56, i64 4
  %58 = call <4 x float> @_mm_loadu_ps(ptr noundef %57)
  %59 = call <4 x float> @_mm_mul_ps(<4 x float> noundef %55, <4 x float> noundef %58)
  store <4 x float> %59, ptr %18, align 16, !tbaa !12
  %60 = load <4 x float>, ptr %20, align 16, !tbaa !12
  %61 = call <2 x i64> @_mm_castps_si128(<4 x float> noundef %60)
  %62 = bitcast <2 x i64> %61 to <4 x i32>
  %63 = shufflevector <4 x i32> %62, <4 x i32> poison, <4 x i32> <i32 2, i32 2, i32 2, i32 2>
  %64 = bitcast <4 x i32> %63 to <2 x i64>
  %65 = call <4 x float> @_mm_castsi128_ps(<2 x i64> noundef %64)
  store <4 x float> %65, ptr %19, align 16, !tbaa !12
  %66 = load <4 x float>, ptr %17, align 16, !tbaa !12
  %67 = load <4 x float>, ptr %19, align 16, !tbaa !12
  %68 = load ptr, ptr %15, align 8, !tbaa !21
  %69 = getelementptr inbounds float, ptr %68, i64 8
  %70 = call <4 x float> @_mm_loadu_ps(ptr noundef %69)
  %71 = call <4 x float> @_mm_mul_ps(<4 x float> noundef %67, <4 x float> noundef %70)
  %72 = call <4 x float> @_mm_add_ps(<4 x float> noundef %66, <4 x float> noundef %71)
  store <4 x float> %72, ptr %17, align 16, !tbaa !12
  %73 = load <4 x float>, ptr %20, align 16, !tbaa !12
  %74 = call <2 x i64> @_mm_castps_si128(<4 x float> noundef %73)
  %75 = bitcast <2 x i64> %74 to <4 x i32>
  %76 = shufflevector <4 x i32> %75, <4 x i32> poison, <4 x i32> <i32 3, i32 3, i32 3, i32 3>
  %77 = bitcast <4 x i32> %76 to <2 x i64>
  %78 = call <4 x float> @_mm_castsi128_ps(<2 x i64> noundef %77)
  store <4 x float> %78, ptr %19, align 16, !tbaa !12
  %79 = load <4 x float>, ptr %18, align 16, !tbaa !12
  %80 = load <4 x float>, ptr %19, align 16, !tbaa !12
  %81 = load ptr, ptr %15, align 8, !tbaa !21
  %82 = getelementptr inbounds float, ptr %81, i64 12
  %83 = call <4 x float> @_mm_loadu_ps(ptr noundef %82)
  %84 = call <4 x float> @_mm_mul_ps(<4 x float> noundef %80, <4 x float> noundef %83)
  %85 = call <4 x float> @_mm_add_ps(<4 x float> noundef %79, <4 x float> noundef %84)
  store <4 x float> %85, ptr %18, align 16, !tbaa !12
  %86 = load ptr, ptr %15, align 8, !tbaa !21
  call void asm sideeffect "", "r,~{dirflag},~{fpsr},~{flags}"(ptr %86) #12, !srcloc !704
  %87 = load ptr, ptr %16, align 8, !tbaa !21
  %88 = getelementptr inbounds float, ptr %87, i64 4
  %89 = call <4 x float> @_mm_loadu_ps(ptr noundef %88)
  store <4 x float> %89, ptr %20, align 16, !tbaa !12
  %90 = load <4 x float>, ptr %20, align 16, !tbaa !12
  %91 = call <2 x i64> @_mm_castps_si128(<4 x float> noundef %90)
  %92 = bitcast <2 x i64> %91 to <4 x i32>
  %93 = shufflevector <4 x i32> %92, <4 x i32> poison, <4 x i32> zeroinitializer
  %94 = bitcast <4 x i32> %93 to <2 x i64>
  %95 = call <4 x float> @_mm_castsi128_ps(<2 x i64> noundef %94)
  store <4 x float> %95, ptr %19, align 16, !tbaa !12
  %96 = load <4 x float>, ptr %17, align 16, !tbaa !12
  %97 = load <4 x float>, ptr %19, align 16, !tbaa !12
  %98 = load ptr, ptr %15, align 8, !tbaa !21
  %99 = getelementptr inbounds float, ptr %98, i64 16
  %100 = call <4 x float> @_mm_loadu_ps(ptr noundef %99)
  %101 = call <4 x float> @_mm_mul_ps(<4 x float> noundef %97, <4 x float> noundef %100)
  %102 = call <4 x float> @_mm_add_ps(<4 x float> noundef %96, <4 x float> noundef %101)
  store <4 x float> %102, ptr %17, align 16, !tbaa !12
  %103 = load <4 x float>, ptr %20, align 16, !tbaa !12
  %104 = call <2 x i64> @_mm_castps_si128(<4 x float> noundef %103)
  %105 = bitcast <2 x i64> %104 to <4 x i32>
  %106 = shufflevector <4 x i32> %105, <4 x i32> poison, <4 x i32> <i32 1, i32 1, i32 1, i32 1>
  %107 = bitcast <4 x i32> %106 to <2 x i64>
  %108 = call <4 x float> @_mm_castsi128_ps(<2 x i64> noundef %107)
  store <4 x float> %108, ptr %19, align 16, !tbaa !12
  %109 = load <4 x float>, ptr %18, align 16, !tbaa !12
  %110 = load <4 x float>, ptr %19, align 16, !tbaa !12
  %111 = load ptr, ptr %15, align 8, !tbaa !21
  %112 = getelementptr inbounds float, ptr %111, i64 16
  %113 = getelementptr inbounds float, ptr %112, i64 4
  %114 = call <4 x float> @_mm_loadu_ps(ptr noundef %113)
  %115 = call <4 x float> @_mm_mul_ps(<4 x float> noundef %110, <4 x float> noundef %114)
  %116 = call <4 x float> @_mm_add_ps(<4 x float> noundef %109, <4 x float> noundef %115)
  store <4 x float> %116, ptr %18, align 16, !tbaa !12
  %117 = load <4 x float>, ptr %20, align 16, !tbaa !12
  %118 = call <2 x i64> @_mm_castps_si128(<4 x float> noundef %117)
  %119 = bitcast <2 x i64> %118 to <4 x i32>
  %120 = shufflevector <4 x i32> %119, <4 x i32> poison, <4 x i32> <i32 2, i32 2, i32 2, i32 2>
  %121 = bitcast <4 x i32> %120 to <2 x i64>
  %122 = call <4 x float> @_mm_castsi128_ps(<2 x i64> noundef %121)
  store <4 x float> %122, ptr %19, align 16, !tbaa !12
  %123 = load <4 x float>, ptr %17, align 16, !tbaa !12
  %124 = load <4 x float>, ptr %19, align 16, !tbaa !12
  %125 = load ptr, ptr %15, align 8, !tbaa !21
  %126 = getelementptr inbounds float, ptr %125, i64 16
  %127 = getelementptr inbounds float, ptr %126, i64 8
  %128 = call <4 x float> @_mm_loadu_ps(ptr noundef %127)
  %129 = call <4 x float> @_mm_mul_ps(<4 x float> noundef %124, <4 x float> noundef %128)
  %130 = call <4 x float> @_mm_add_ps(<4 x float> noundef %123, <4 x float> noundef %129)
  store <4 x float> %130, ptr %17, align 16, !tbaa !12
  %131 = load <4 x float>, ptr %20, align 16, !tbaa !12
  %132 = call <2 x i64> @_mm_castps_si128(<4 x float> noundef %131)
  %133 = bitcast <2 x i64> %132 to <4 x i32>
  %134 = shufflevector <4 x i32> %133, <4 x i32> poison, <4 x i32> <i32 3, i32 3, i32 3, i32 3>
  %135 = bitcast <4 x i32> %134 to <2 x i64>
  %136 = call <4 x float> @_mm_castsi128_ps(<2 x i64> noundef %135)
  store <4 x float> %136, ptr %19, align 16, !tbaa !12
  %137 = load <4 x float>, ptr %18, align 16, !tbaa !12
  %138 = load <4 x float>, ptr %19, align 16, !tbaa !12
  %139 = load ptr, ptr %15, align 8, !tbaa !21
  %140 = getelementptr inbounds float, ptr %139, i64 16
  %141 = getelementptr inbounds float, ptr %140, i64 12
  %142 = call <4 x float> @_mm_loadu_ps(ptr noundef %141)
  %143 = call <4 x float> @_mm_mul_ps(<4 x float> noundef %138, <4 x float> noundef %142)
  %144 = call <4 x float> @_mm_add_ps(<4 x float> noundef %137, <4 x float> noundef %143)
  store <4 x float> %144, ptr %18, align 16, !tbaa !12
  %145 = load <4 x float>, ptr %17, align 16, !tbaa !12
  %146 = load <4 x float>, ptr %18, align 16, !tbaa !12
  %147 = call <4 x float> @_mm_add_ps(<4 x float> noundef %145, <4 x float> noundef %146)
  store <4 x float> %147, ptr %17, align 16, !tbaa !12
  %148 = load ptr, ptr %14, align 8, !tbaa !21
  %149 = load <4 x float>, ptr %17, align 16, !tbaa !12
  call void @_mm_storeu_ps(ptr noundef %148, <4 x float> noundef %149)
  %150 = load i32, ptr %12, align 4, !tbaa !26
  %151 = load ptr, ptr %11, align 8, !tbaa !21
  %152 = sext i32 %150 to i64
  %153 = getelementptr inbounds float, ptr %151, i64 %152
  store ptr %153, ptr %11, align 8, !tbaa !21
  %154 = load ptr, ptr %10, align 8, !tbaa !3
  %155 = getelementptr inbounds nuw %struct.stbir__contributors, ptr %154, i32 1
  store ptr %155, ptr %10, align 8, !tbaa !3
  %156 = load ptr, ptr %14, align 8, !tbaa !21
  %157 = getelementptr inbounds float, ptr %156, i64 4
  store ptr %157, ptr %14, align 8, !tbaa !21
  call void @llvm.lifetime.end.p0(i64 16, ptr %20) #12
  call void @llvm.lifetime.end.p0(i64 16, ptr %19) #12
  call void @llvm.lifetime.end.p0(i64 16, ptr %18) #12
  call void @llvm.lifetime.end.p0(i64 16, ptr %17) #12
  call void @llvm.lifetime.end.p0(i64 8, ptr %16) #12
  call void @llvm.lifetime.end.p0(i64 8, ptr %15) #12
  br label %158

158:                                              ; preds = %27
  %159 = load ptr, ptr %14, align 8, !tbaa !21
  %160 = load ptr, ptr %13, align 8, !tbaa !21
  %161 = icmp ult ptr %159, %160
  br i1 %161, label %27, label %162, !llvm.loop !705

162:                                              ; preds = %158
  call void @llvm.lifetime.end.p0(i64 8, ptr %14) #12
  call void @llvm.lifetime.end.p0(i64 8, ptr %13) #12
  ret void
}